target datalayout = "e-m:e-p270:32:32-p271:32:32-p272:64:64-i64:64-i128:128-f80:128-n8:16:32:64-S128"
target triple = "x86_64-pc-linux-gnu"

%struct.Node = type { i32 }
%struct.Var = type { %struct.Expr, i32, i16, i32, i32, i32, ptr, i32, i32, i32, i16, i32 }
%struct.Expr = type { i32 }
%struct.PlaceHolderVar = type { %struct.Expr, ptr, ptr, ptr, i32, i32 }
%struct.pull_vars_context = type { ptr, i32 }

; Function Attrs: nounwind uwtable
define internal zeroext i1 @pull_vars_walker(ptr noundef %0, ptr noundef %1) #0 {
  %3 = alloca i1, align 1
  %4 = alloca ptr, align 8
  %5 = alloca ptr, align 8
  %6 = alloca ptr, align 8
  %7 = alloca ptr, align 8
  %8 = alloca i8, align 1
  store ptr %0, ptr %4, align 8
  store ptr %1, ptr %5, align 8
  %9 = load ptr, ptr %4, align 8
  %10 = icmp eq ptr %9, null
  br i1 %10, label %11, label %12

11:                                               ; preds = %2
  store i1 false, ptr %3, align 1
  br label %82

12:                                               ; preds = %2
  %13 = load ptr, ptr %4, align 8
  %14 = getelementptr inbounds nuw %struct.Node, ptr %13, i32 0, i32 0
  %15 = load i32, ptr %14, align 4
  %16 = icmp eq i32 %15, 6
  br i1 %16, label %17, label %35

17:                                               ; preds = %12
  call void @llvm.lifetime.start.p0(i64 8, ptr %6) #6
  %18 = load ptr, ptr %4, align 8
  store ptr %18, ptr %6, align 8
  %19 = load ptr, ptr %6, align 8
  %20 = getelementptr inbounds nuw %struct.Var, ptr %19, i32 0, i32 7
  %21 = load i32, ptr %20, align 8
  %22 = load ptr, ptr %5, align 8
  %23 = getelementptr inbounds nuw %struct.pull_vars_context, ptr %22, i32 0, i32 1
  %24 = load i32, ptr %23, align 8
  %25 = icmp eq i32 %21, %24
  br i1 %25, label %26, label %34

26:                                               ; preds = %17
  %27 = load ptr, ptr %5, align 8
  %28 = getelementptr inbounds nuw %struct.pull_vars_context, ptr %27, i32 0, i32 0
  %29 = load ptr, ptr %28, align 8
  %30 = load ptr, ptr %6, align 8
  %31 = call ptr @lappend(ptr noundef %29, ptr noundef %30)
  %32 = load ptr, ptr %5, align 8
  %33 = getelementptr inbounds nuw %struct.pull_vars_context, ptr %32, i32 0, i32 0
  store ptr %31, ptr %33, align 8
  br label %34

34:                                               ; preds = %26, %17
  store i1 false, ptr %3, align 1
  call void @llvm.lifetime.end.p0(i64 8, ptr %6) #6
  br label %82

35:                                               ; preds = %12
  %36 = load ptr, ptr %4, align 8
  %37 = getelementptr inbounds nuw %struct.Node, ptr %36, i32 0, i32 0
  %38 = load i32, ptr %37, align 4
  %39 = icmp eq i32 %38, 318
  br i1 %39, label %40, label %58

40:                                               ; preds = %35
  call void @llvm.lifetime.start.p0(i64 8, ptr %7) #6
  %41 = load ptr, ptr %4, align 8
  store ptr %41, ptr %7, align 8
  %42 = load ptr, ptr %7, align 8
  %43 = getelementptr inbounds nuw %struct.PlaceHolderVar, ptr %42, i32 0, i32 5
  %44 = load i32, ptr %43, align 4
  %45 = load ptr, ptr %5, align 8
  %46 = getelementptr inbounds nuw %struct.pull_vars_context, ptr %45, i32 0, i32 1
  %47 = load i32, ptr %46, align 8
  %48 = icmp eq i32 %44, %47
  br i1 %48, label %49, label %57

49:                                               ; preds = %40
  %50 = load ptr, ptr %5, align 8
  %51 = getelementptr inbounds nuw %struct.pull_vars_context, ptr %50, i32 0, i32 0
  %52 = load ptr, ptr %51, align 8
  %53 = load ptr, ptr %7, align 8
  %54 = call ptr @lappend(ptr noundef %52, ptr noundef %53)
  %55 = load ptr, ptr %5, align 8
  %56 = getelementptr inbounds nuw %struct.pull_vars_context, ptr %55, i32 0, i32 0
  store ptr %54, ptr %56, align 8
  br label %57

57:                                               ; preds = %49, %40
  store i1 false, ptr %3, align 1
  call void @llvm.lifetime.end.p0(i64 8, ptr %7) #6
  br label %82

58:                                               ; preds = %35
  %59 = load ptr, ptr %4, align 8
  %60 = getelementptr inbounds nuw %struct.Node, ptr %59, i32 0, i32 0
  %61 = load i32, ptr %60, align 4
  %62 = icmp eq i32 %61, 67
  br i1 %62, label %63, label %78

63:                                               ; preds = %58
  call void @llvm.lifetime.start.p0(i64 1, ptr %8) #6
  %64 = load ptr, ptr %5, align 8
  %65 = getelementptr inbounds nuw %struct.pull_vars_context, ptr %64, i32 0, i32 1
  %66 = load i32, ptr %65, align 8
  %67 = add i32 %66, 1
  store i32 %67, ptr %65, align 8
  %68 = load ptr, ptr %4, align 8
  %69 = load ptr, ptr %5, align 8
  %70 = call zeroext i1 @query_tree_walker_impl(ptr noundef %68, ptr noundef @pull_vars_walker, ptr noundef %69, i32 noundef 0)
  %71 = zext i1 %70 to i8
  store i8 %71, ptr %8, align 1
  %72 = load ptr, ptr %5, align 8
  %73 = getelementptr inbounds nuw %struct.pull_vars_context, ptr %72, i32 0, i32 1
  %74 = load i32, ptr %73, align 8
  %75 = add i32 %74, -1
  store i32 %75, ptr %73, align 8
  %76 = load i8, ptr %8, align 1, !range !4, !noundef !5
  %77 = trunc i8 %76 to i1
  store i1 %77, ptr %3, align 1
  call void @llvm.lifetime.end.p0(i64 1, ptr %8) #6
  br label %82

78:                                               ; preds = %58
  %79 = load ptr, ptr %4, align 8
  %80 = load ptr, ptr %5, align 8
  %81 = call zeroext i1 @expression_tree_walker_impl(ptr noundef %79, ptr noundef @pull_vars_walker, ptr noundef %80)
  store i1 %81, ptr %3, align 1
  br label %82

82:                                               ; preds = %78, %63, %57, %34, %11
  %83 = load i1, ptr %3, align 1
  ret i1 %83
}