; Function Attrs: nounwind uwtable
define internal zeroext i1 @pull_vars_walker(ptr noundef %0, ptr noundef %1) #0 {
  %3 = icmp eq ptr %0, null
  br i1 %3, label %33, label %4

4:                                                ; preds = %2
  %5 = load i32, ptr %0, align 4
  switch i32 %5, label %31 [
    i32 6, label %6
    i32 318, label %15
    i32 67, label %24
  ]

6:                                                ; preds = %4
  %7 = getelementptr inbounds nuw i8, ptr %0, i64 32
  %8 = load i32, ptr %7, align 8
  %9 = getelementptr inbounds nuw i8, ptr %1, i64 8
  %10 = load i32, ptr %9, align 8
  %11 = icmp eq i32 %8, %10
  br i1 %11, label %12, label %33

12:                                               ; preds = %6
  %13 = load ptr, ptr %1, align 8
  %14 = tail call ptr @lappend(ptr noundef %13, ptr noundef nonnull %0) #6
  store ptr %14, ptr %1, align 8
  br label %33

15:                                               ; preds = %4
  %16 = getelementptr inbounds nuw i8, ptr %0, i64 36
  %17 = load i32, ptr %16, align 4
  %18 = getelementptr inbounds nuw i8, ptr %1, i64 8
  %19 = load i32, ptr %18, align 8
  %20 = icmp eq i32 %17, %19
  br i1 %20, label %21, label %33

21:                                               ; preds = %15
  %22 = load ptr, ptr %1, align 8
  %23 = tail call ptr @lappend(ptr noundef %22, ptr noundef nonnull %0) #6
  store ptr %23, ptr %1, align 8
  br label %33

24:                                               ; preds = %4
  %25 = getelementptr inbounds nuw i8, ptr %1, i64 8
  %26 = load i32, ptr %25, align 8
  %27 = add i32 %26, 1
  store i32 %27, ptr %25, align 8
  %28 = tail call zeroext i1 @query_tree_walker_impl(ptr noundef nonnull %0, ptr noundef nonnull @pull_vars_walker, ptr noundef %1, i32 noundef 0) #6
  %29 = load i32, ptr %25, align 8
  %30 = add i32 %29, -1
  store i32 %30, ptr %25, align 8
  br label %33

31:                                               ; preds = %4
  %32 = tail call zeroext i1 @expression_tree_walker_impl(ptr noundef nonnull %0, ptr noundef nonnull @pull_vars_walker, ptr noundef %1) #6
  br label %33

33:                                               ; preds = %15, %21, %6, %12, %2, %31, %24
  %.0 = phi i1 [ %28, %24 ], [ %32, %31 ], [ false, %2 ], [ false, %12 ], [ false, %6 ], [ false, %21 ], [ false, %15 ]
  ret i1 %.0
}